(dp0
Vengine
p1
S'pdflatex'
p2
sVpackages
p3
c__builtin__
set
p4
((lp5
Vfancyhdr
p6
aVamsmath
p7
aVfloat
p8
aVhyphsubst
p9
aVamsthm
p10
aVarray
p11
aVsiunitx
p12
aVstmaryrd
p13
aVbabel
p14
aVmarvosym
p15
aVlmodern
p16
aVunits
p17
aVinputenc
p18
aVenumitem
p19
aVamsfonts
p20
aVhyperref
p21
aVurl
p22
aVlistings
p23
aVpgfplots
p24
aVfontenc
p25
aVplaceins
p26
aVamssymb
p27
atp28
Rp29
sVfiles_with_guttermarks
p30
g4
((lp31
S'gwv_blatt_01.tex'
p32
atp33
Rp34
sVsynctex
p35
I01
s.